target datalayout = "e-m:e-p270:32:32-p271:32:32-p272:64:64-i64:64-i128:128-f80:128-n8:16:32:64-S128"
target triple = "x86_64-pc-linux-gnu"

%struct.DdManager = type { %struct.DdNode, ptr, ptr, ptr, ptr, ptr, ptr, ptr, i32, i32, double, double, double, i32, i32, i32, i32, i32, i32, ptr, ptr, %struct.DdSubtable, i32, i32, i32, i32, i32, i32, i32, double, i32, i32, i32, ptr, i64, double, i32, ptr, ptr, ptr, ptr, ptr, ptr, ptr, i32, ptr, ptr, ptr, ptr, ptr, ptr, i32, i32, i32, double, i32, i32, i32, i32, double, double, i32, i32, i32, i32, i32, i32, i32, i32, i32, ptr, ptr, i32, i32, i32, i32, i32, i32, ptr, ptr, ptr, ptr, ptr, ptr, ptr, ptr, i32, i64, i64, i64, i32, i64, i64, double, double, double, double, double, double, i32, ptr, ptr, i64 }
%struct.DdNode = type { i32, i32, ptr, %union.anon, i64 }
%union.anon = type { %struct.DdChildren }
%struct.DdChildren = type { ptr, ptr }
%struct.DdSubtable = type { ptr, i32, i32, i32, i32, i32, i32, i32, i32, i32, i32, i32 }
%struct.Aig_Obj_t_ = type { %union.anon.0, ptr, ptr, i64, i32, i32, %union.anon.1 }
%union.anon.0 = type { ptr }
%union.anon.1 = type { ptr }
%struct.Aig_Man_t_ = type { ptr, ptr, ptr, ptr, ptr, ptr, ptr, %struct.Aig_Obj_t_, i32, i32, i32, i32, i32, i32, [7 x i32], i32, ptr, i32, ptr, i32, ptr, i32, i32, i32, ptr, i32, i32, i32, i32, i32, ptr, ptr, i32, ptr, ptr, i32, ptr, ptr, i32, i32, i32, ptr, ptr, ptr, ptr, ptr, ptr, ptr, ptr, ptr, ptr, ptr, ptr, ptr, ptr, i32, ptr, ptr, ptr, ptr, i32, i64, i64, i64, ptr, ptr }
%struct.Vec_Ptr_t_ = type { i32, i32, ptr }

; Function Attrs: nounwind uwtable
define internal i32 @Aig_IsComplement(ptr noundef %0) #0 {
  %2 = alloca ptr, align 8
  store ptr %0, ptr %2, align 8
  %3 = load ptr, ptr %2, align 8
  %4 = ptrtoint ptr %3 to i64
  %5 = and i64 %4, 1
  %6 = trunc i64 %5 to i32
  ret i32 %6
}

; Function Attrs: nounwind uwtable
define internal ptr @Aig_Regular(ptr noundef %0) #0 {
  %2 = alloca ptr, align 8
  store ptr %0, ptr %2, align 8
  %3 = load ptr, ptr %2, align 8
  %4 = ptrtoint ptr %3 to i64
  %5 = and i64 %4, -2
  %6 = inttoptr i64 %5 to ptr
  ret ptr %6
}

; Function Attrs: nounwind uwtable
define internal i32 @Aig_ObjIsCo(ptr noundef %0) #0 {
  %2 = alloca ptr, align 8
  store ptr %0, ptr %2, align 8
  %3 = load ptr, ptr %2, align 8
  %4 = getelementptr inbounds %struct.Aig_Obj_t_, ptr %3, i32 0, i32 3
  %5 = load i64, ptr %4, align 8
  %6 = and i64 %5, 7
  %7 = trunc i64 %6 to i32
  %8 = icmp eq i32 %7, 3
  %9 = zext i1 %8 to i32
  ret i32 %9
}

; Function Attrs: nounwind uwtable
define internal void @Vec_PtrFree(ptr noundef %0) #0 {
  %2 = alloca ptr, align 8
  store ptr %0, ptr %2, align 8
  %3 = load ptr, ptr %2, align 8
  %4 = getelementptr inbounds %struct.Vec_Ptr_t_, ptr %3, i32 0, i32 2
  %5 = load ptr, ptr %4, align 8
  %6 = icmp ne ptr %5, null
  br i1 %6, label %7, label %13

7:                                                ; preds = %1
  %8 = load ptr, ptr %2, align 8
  %9 = getelementptr inbounds %struct.Vec_Ptr_t_, ptr %8, i32 0, i32 2
  %10 = load ptr, ptr %9, align 8
  call void @free(ptr noundef %10) #7
  %11 = load ptr, ptr %2, align 8
  %12 = getelementptr inbounds %struct.Vec_Ptr_t_, ptr %11, i32 0, i32 2
  store ptr null, ptr %12, align 8
  br label %14

13:                                               ; preds = %1
  br label %14

14:                                               ; preds = %13, %7
  %15 = load ptr, ptr %2, align 8
  %16 = icmp ne ptr %15, null
  br i1 %16, label %17, label %19

17:                                               ; preds = %14
  %18 = load ptr, ptr %2, align 8
  call void @free(ptr noundef %18) #7
  store ptr null, ptr %2, align 8
  br label %20

19:                                               ; preds = %14
  br label %20

20:                                               ; preds = %19, %17
  ret void
}

; Function Attrs: nounwind uwtable
define internal i32 @Aig_ObjFaninC1(ptr noundef %0) #0 {
  %2 = alloca ptr, align 8
  store ptr %0, ptr %2, align 8
  %3 = load ptr, ptr %2, align 8
  %4 = getelementptr inbounds %struct.Aig_Obj_t_, ptr %3, i32 0, i32 2
  %5 = load ptr, ptr %4, align 8
  %6 = call i32 @Aig_IsComplement(ptr noundef %5)
  ret i32 %6
}

; Function Attrs: nounwind uwtable
define internal ptr @Aig_ObjFanin1(ptr noundef %0) #0 {
  %2 = alloca ptr, align 8
  store ptr %0, ptr %2, align 8
  %3 = load ptr, ptr %2, align 8
  %4 = getelementptr inbounds %struct.Aig_Obj_t_, ptr %3, i32 0, i32 2
  %5 = load ptr, ptr %4, align 8
  %6 = call ptr @Aig_Regular(ptr noundef %5)
  ret ptr %6
}

; Function Attrs: nounwind uwtable
define internal i32 @Aig_ObjIsNode(ptr noundef %0) #0 {
  %2 = alloca ptr, align 8
  store ptr %0, ptr %2, align 8
  %3 = load ptr, ptr %2, align 8
  %4 = getelementptr inbounds %struct.Aig_Obj_t_, ptr %3, i32 0, i32 3
  %5 = load i64, ptr %4, align 8
  %6 = and i64 %5, 7
  %7 = trunc i64 %6 to i32
  %8 = icmp eq i32 %7, 5
  br i1 %8, label %16, label %9

9:                                                ; preds = %1
  %10 = load ptr, ptr %2, align 8
  %11 = getelementptr inbounds %struct.Aig_Obj_t_, ptr %10, i32 0, i32 3
  %12 = load i64, ptr %11, align 8
  %13 = and i64 %12, 7
  %14 = trunc i64 %13 to i32
  %15 = icmp eq i32 %14, 6
  br label %16

16:                                               ; preds = %9, %1
  %17 = phi i1 [ true, %1 ], [ %15, %9 ]
  %18 = zext i1 %17 to i32
  ret i32 %18
}

; Function Attrs: nounwind uwtable
define internal ptr @Vec_PtrEntry(ptr noundef %0, i32 noundef %1) #0 {
  %3 = alloca ptr, align 8
  %4 = alloca i32, align 4
  store ptr %0, ptr %3, align 8
  store i32 %1, ptr %4, align 4
  %5 = load ptr, ptr %3, align 8
  %6 = getelementptr inbounds %struct.Vec_Ptr_t_, ptr %5, i32 0, i32 2
  %7 = load ptr, ptr %6, align 8
  %8 = load i32, ptr %4, align 4
  %9 = sext i32 %8 to i64
  %10 = getelementptr inbounds ptr, ptr %7, i64 %9
  %11 = load ptr, ptr %10, align 8
  ret ptr %11
}

; Function Attrs: nounwind uwtable
define internal i32 @Vec_PtrSize(ptr noundef %0) #0 {
  %2 = alloca ptr, align 8
  store ptr %0, ptr %2, align 8
  %3 = load ptr, ptr %2, align 8
  %4 = getelementptr inbounds %struct.Vec_Ptr_t_, ptr %3, i32 0, i32 1
  %5 = load i32, ptr %4, align 4
  ret i32 %5
}

; Function Attrs: nounwind uwtable
define internal i32 @Aig_ObjFaninC0(ptr noundef %0) #0 {
  %2 = alloca ptr, align 8
  store ptr %0, ptr %2, align 8
  %3 = load ptr, ptr %2, align 8
  %4 = getelementptr inbounds %struct.Aig_Obj_t_, ptr %3, i32 0, i32 1
  %5 = load ptr, ptr %4, align 8
  %6 = call i32 @Aig_IsComplement(ptr noundef %5)
  ret i32 %6
}

; Function Attrs: nounwind uwtable
define internal ptr @Aig_ManConst1(ptr noundef %0) #0 {
  %2 = alloca ptr, align 8
  store ptr %0, ptr %2, align 8
  %3 = load ptr, ptr %2, align 8
  %4 = getelementptr inbounds %struct.Aig_Man_t_, ptr %3, i32 0, i32 6
  %5 = load ptr, ptr %4, align 8
  ret ptr %5
}

; Function Attrs: nounwind uwtable
define internal ptr @Aig_ObjFanin0(ptr noundef %0) #0 {
  %2 = alloca ptr, align 8
  store ptr %0, ptr %2, align 8
  %3 = load ptr, ptr %2, align 8
  %4 = getelementptr inbounds %struct.Aig_Obj_t_, ptr %3, i32 0, i32 1
  %5 = load ptr, ptr %4, align 8
  %6 = call ptr @Aig_Regular(ptr noundef %5)
  ret ptr %6
}

; Function Attrs: nounwind uwtable
define ptr @Llb_ManConstructOutBdd(ptr noundef %0, ptr noundef %1, ptr noundef %2) #0 {
  %4 = alloca ptr, align 8
  %5 = alloca ptr, align 8
  %6 = alloca ptr, align 8
  %7 = alloca ptr, align 8
  %8 = alloca ptr, align 8
  %9 = alloca ptr, align 8
  %10 = alloca ptr, align 8
  %11 = alloca ptr, align 8
  %12 = alloca ptr, align 8
  %13 = alloca i32, align 4
  %14 = alloca i64, align 8
  store ptr %0, ptr %5, align 8
  store ptr %1, ptr %6, align 8
  store ptr %2, ptr %7, align 8
  store ptr null, ptr %12, align 8
  %15 = load ptr, ptr %6, align 8
  %16 = call ptr @Aig_ObjFanin0(ptr noundef %15)
  %17 = load ptr, ptr %5, align 8
  %18 = call ptr @Aig_ManConst1(ptr noundef %17)
  %19 = icmp eq ptr %16, %18
  br i1 %19, label %20, label %29

20:                                               ; preds = %3
  %21 = load ptr, ptr %7, align 8
  %22 = call ptr @Cudd_ReadOne(ptr noundef %21)
  %23 = ptrtoint ptr %22 to i64
  %24 = load ptr, ptr %6, align 8
  %25 = call i32 @Aig_ObjFaninC0(ptr noundef %24)
  %26 = sext i32 %25 to i64
  %27 = xor i64 %23, %26
  %28 = inttoptr i64 %27 to ptr
  store ptr %28, ptr %4, align 8
  br label %134

29:                                               ; preds = %3
  %30 = load ptr, ptr %7, align 8
  %31 = getelementptr inbounds %struct.DdManager, ptr %30, i32 0, i32 102
  %32 = load i64, ptr %31, align 8
  store i64 %32, ptr %14, align 8
  %33 = load ptr, ptr %7, align 8
  %34 = getelementptr inbounds %struct.DdManager, ptr %33, i32 0, i32 102
  store i64 0, ptr %34, align 8
  %35 = load ptr, ptr %5, align 8
  %36 = call ptr @Aig_ManDfsNodes(ptr noundef %35, ptr noundef %6, i32 noundef 1)
  store ptr %36, ptr %11, align 8
  store i32 0, ptr %13, align 4
  br label %37

37:                                               ; preds = %83, %29
  %38 = load i32, ptr %13, align 4
  %39 = load ptr, ptr %11, align 8
  %40 = call i32 @Vec_PtrSize(ptr noundef %39)
  %41 = icmp slt i32 %38, %40
  br i1 %41, label %42, label %46

42:                                               ; preds = %37
  %43 = load ptr, ptr %11, align 8
  %44 = load i32, ptr %13, align 4
  %45 = call ptr @Vec_PtrEntry(ptr noundef %43, i32 noundef %44)
  store ptr %45, ptr %12, align 8
  br label %46

46:                                               ; preds = %42, %37
  %47 = phi i1 [ false, %37 ], [ true, %42 ]
  br i1 %47, label %48, label %86

48:                                               ; preds = %46
  %49 = load ptr, ptr %12, align 8
  %50 = call i32 @Aig_ObjIsNode(ptr noundef %49)
  %51 = icmp ne i32 %50, 0
  br i1 %51, label %53, label %52

52:                                               ; preds = %48
  br label %83

53:                                               ; preds = %48
  %54 = load ptr, ptr %12, align 8
  %55 = call ptr @Aig_ObjFanin0(ptr noundef %54)
  %56 = getelementptr inbounds %struct.Aig_Obj_t_, ptr %55, i32 0, i32 6
  %57 = load ptr, ptr %56, align 8
  %58 = ptrtoint ptr %57 to i64
  %59 = load ptr, ptr %12, align 8
  %60 = call i32 @Aig_ObjFaninC0(ptr noundef %59)
  %61 = sext i32 %60 to i64
  %62 = xor i64 %58, %61
  %63 = inttoptr i64 %62 to ptr
  store ptr %63, ptr %8, align 8
  %64 = load ptr, ptr %12, align 8
  %65 = call ptr @Aig_ObjFanin1(ptr noundef %64)
  %66 = getelementptr inbounds %struct.Aig_Obj_t_, ptr %65, i32 0, i32 6
  %67 = load ptr, ptr %66, align 8
  %68 = ptrtoint ptr %67 to i64
  %69 = load ptr, ptr %12, align 8
  %70 = call i32 @Aig_ObjFaninC1(ptr noundef %69)
  %71 = sext i32 %70 to i64
  %72 = xor i64 %68, %71
  %73 = inttoptr i64 %72 to ptr
  store ptr %73, ptr %9, align 8
  %74 = load ptr, ptr %7, align 8
  %75 = load ptr, ptr %8, align 8
  %76 = load ptr, ptr %9, align 8
  %77 = call ptr @Cudd_bddAnd(ptr noundef %74, ptr noundef %75, ptr noundef %76)
  %78 = load ptr, ptr %12, align 8
  %79 = getelementptr inbounds %struct.Aig_Obj_t_, ptr %78, i32 0, i32 6
  store ptr %77, ptr %79, align 8
  %80 = load ptr, ptr %12, align 8
  %81 = getelementptr inbounds %struct.Aig_Obj_t_, ptr %80, i32 0, i32 6
  %82 = load ptr, ptr %81, align 8
  call void @Cudd_Ref(ptr noundef %82)
  br label %83

83:                                               ; preds = %53, %52
  %84 = load i32, ptr %13, align 4
  %85 = add nsw i32 %84, 1
  store i32 %85, ptr %13, align 4
  br label %37, !llvm.loop !4

86:                                               ; preds = %46
  %87 = load ptr, ptr %12, align 8
  %88 = getelementptr inbounds %struct.Aig_Obj_t_, ptr %87, i32 0, i32 6
  %89 = load ptr, ptr %88, align 8
  store ptr %89, ptr %10, align 8
  %90 = load ptr, ptr %10, align 8
  call void @Cudd_Ref(ptr noundef %90)
  store i32 0, ptr %13, align 4
  br label %91

91:                                               ; preds = %112, %86
  %92 = load i32, ptr %13, align 4
  %93 = load ptr, ptr %11, align 8
  %94 = call i32 @Vec_PtrSize(ptr noundef %93)
  %95 = icmp slt i32 %92, %94
  br i1 %95, label %96, label %100

96:                                               ; preds = %91
  %97 = load ptr, ptr %11, align 8
  %98 = load i32, ptr %13, align 4
  %99 = call ptr @Vec_PtrEntry(ptr noundef %97, i32 noundef %98)
  store ptr %99, ptr %12, align 8
  br label %100

100:                                              ; preds = %96, %91
  %101 = phi i1 [ false, %91 ], [ true, %96 ]
  br i1 %101, label %102, label %115

102:                                              ; preds = %100
  %103 = load ptr, ptr %12, align 8
  %104 = call i32 @Aig_ObjIsNode(ptr noundef %103)
  %105 = icmp ne i32 %104, 0
  br i1 %105, label %107, label %106

106:                                              ; preds = %102
  br label %112

107:                                              ; preds = %102
  %108 = load ptr, ptr %7, align 8
  %109 = load ptr, ptr %12, align 8
  %110 = getelementptr inbounds %struct.Aig_Obj_t_, ptr %109, i32 0, i32 6
  %111 = load ptr, ptr %110, align 8
  call void @Cudd_RecursiveDeref(ptr noundef %108, ptr noundef %111)
  br label %112

112:                                              ; preds = %107, %106
  %113 = load i32, ptr %13, align 4
  %114 = add nsw i32 %113, 1
  store i32 %114, ptr %13, align 4
  br label %91, !llvm.loop !6

115:                                              ; preds = %100
  %116 = load ptr, ptr %11, align 8
  call void @Vec_PtrFree(ptr noundef %116)
  %117 = load ptr, ptr %6, align 8
  %118 = call i32 @Aig_ObjIsCo(ptr noundef %117)
  %119 = icmp ne i32 %118, 0
  br i1 %119, label %120, label %128

120:                                              ; preds = %115
  %121 = load ptr, ptr %10, align 8
  %122 = ptrtoint ptr %121 to i64
  %123 = load ptr, ptr %6, align 8
  %124 = call i32 @Aig_ObjFaninC0(ptr noundef %123)
  %125 = sext i32 %124 to i64
  %126 = xor i64 %122, %125
  %127 = inttoptr i64 %126 to ptr
  store ptr %127, ptr %10, align 8
  br label %128

128:                                              ; preds = %120, %115
  %129 = load ptr, ptr %10, align 8
  call void @Cudd_Deref(ptr noundef %129)
  %130 = load i64, ptr %14, align 8
  %131 = load ptr, ptr %7, align 8
  %132 = getelementptr inbounds %struct.DdManager, ptr %131, i32 0, i32 102
  store i64 %130, ptr %132, align 8
  %133 = load ptr, ptr %10, align 8
  store ptr %133, ptr %4, align 8
  br label %134

134:                                              ; preds = %128, %20
  %135 = load ptr, ptr %4, align 8
  ret ptr %135
}