; Function Attrs: nounwind uwtable
define ptr @Llb_ManConstructOutBdd(ptr noundef %0, ptr noundef %1, ptr noundef %2) local_unnamed_addr #0 {
  %4 = alloca ptr, align 8
  store ptr %1, ptr %4, align 8
  %5 = getelementptr i8, ptr %1, i64 8
  %.val = load ptr, ptr %5, align 8
  %6 = ptrtoint ptr %.val to i64
  %7 = and i64 %6, -2
  %8 = inttoptr i64 %7 to ptr
  %9 = getelementptr i8, ptr %0, i64 48
  %.val44 = load ptr, ptr %9, align 8
  %10 = icmp eq ptr %.val44, %8
  br i1 %10, label %11, label %.lr.ph

11:                                               ; preds = %3
  %12 = tail call ptr @Cudd_ReadOne(ptr noundef %2) #12
  %13 = ptrtoint ptr %12 to i64
  %.val45 = load ptr, ptr %5, align 8
  %14 = ptrtoint ptr %.val45 to i64
  %15 = and i64 %14, 1
  %16 = xor i64 %15, %13
  %17 = inttoptr i64 %16 to ptr
  br label %85

.lr.ph:                                           ; preds = %3
  %18 = getelementptr inbounds nuw i8, ptr %2, i64 752
  %19 = load i64, ptr %18, align 8
  store i64 0, ptr %18, align 8
  %20 = call ptr @Aig_ManDfsNodes(ptr noundef nonnull %0, ptr noundef nonnull %4, i32 noundef 1) #12
  %21 = getelementptr i8, ptr %20, i64 4
  %.val4858 = load i32, ptr %21, align 4
  %22 = icmp sgt i32 %.val4858, 0
  call void @llvm.assume(i1 %22)
  %23 = getelementptr i8, ptr %20, i64 8
  br label %24

24:                                               ; preds = %.lr.ph, %54
  %.val4867 = phi i32 [ %.val4858, %.lr.ph ], [ %.val48, %54 ]
  %indvars.iv = phi i64 [ 0, %.lr.ph ], [ %indvars.iv.next, %54 ]
  %.val50 = load ptr, ptr %23, align 8
  %25 = getelementptr inbounds nuw ptr, ptr %.val50, i64 %indvars.iv
  %26 = load ptr, ptr %25, align 8
  %27 = getelementptr i8, ptr %26, i64 24
  %.val52 = load i64, ptr %27, align 8
  %28 = trunc i64 %.val52 to i32
  %29 = and i32 %28, 7
  %30 = add nsw i32 %29, -7
  %narrow.i = icmp ult i32 %30, -2
  br i1 %narrow.i, label %54, label %31

31:                                               ; preds = %24
  %32 = getelementptr i8, ptr %26, i64 8
  %.val43 = load ptr, ptr %32, align 8
  %33 = ptrtoint ptr %.val43 to i64
  %34 = and i64 %33, -2
  %35 = inttoptr i64 %34 to ptr
  %36 = getelementptr inbounds nuw i8, ptr %35, i64 40
  %37 = load ptr, ptr %36, align 8
  %38 = ptrtoint ptr %37 to i64
  %39 = and i64 %33, 1
  %40 = xor i64 %39, %38
  %41 = inttoptr i64 %40 to ptr
  %42 = getelementptr i8, ptr %26, i64 16
  %.val54 = load ptr, ptr %42, align 8
  %43 = ptrtoint ptr %.val54 to i64
  %44 = and i64 %43, -2
  %45 = inttoptr i64 %44 to ptr
  %46 = getelementptr inbounds nuw i8, ptr %45, i64 40
  %47 = load ptr, ptr %46, align 8
  %48 = ptrtoint ptr %47 to i64
  %49 = and i64 %43, 1
  %50 = xor i64 %49, %48
  %51 = inttoptr i64 %50 to ptr
  %52 = call ptr @Cudd_bddAnd(ptr noundef %2, ptr noundef %41, ptr noundef %51) #12
  %53 = getelementptr inbounds nuw i8, ptr %26, i64 40
  store ptr %52, ptr %53, align 8
  call void @Cudd_Ref(ptr noundef %52) #12
  %.val48.pre = load i32, ptr %21, align 4
  br label %54

54:                                               ; preds = %24, %31
  %.val48 = phi i32 [ %.val4867, %24 ], [ %.val48.pre, %31 ]
  %indvars.iv.next = add nuw nsw i64 %indvars.iv, 1
  %55 = sext i32 %.val48 to i64
  %56 = icmp slt i64 %indvars.iv.next, %55
  br i1 %56, label %24, label %.critedge, !llvm.loop !4

.critedge:                                        ; preds = %54
  %57 = getelementptr inbounds nuw i8, ptr %26, i64 40
  %58 = load ptr, ptr %57, align 8
  call void @Cudd_Ref(ptr noundef %58) #12
  %.val4960 = load i32, ptr %21, align 4
  %59 = icmp sgt i32 %.val4960, 0
  br i1 %59, label %.lr.ph62, label %.critedge2

.lr.ph62:                                         ; preds = %.critedge, %69
  %.val4969 = phi i32 [ %.val49, %69 ], [ %.val4960, %.critedge ]
  %indvars.iv64 = phi i64 [ %indvars.iv.next65, %69 ], [ 0, %.critedge ]
  %.val51 = load ptr, ptr %23, align 8
  %60 = getelementptr inbounds nuw ptr, ptr %.val51, i64 %indvars.iv64
  %61 = load ptr, ptr %60, align 8
  %62 = getelementptr i8, ptr %61, i64 24
  %.val53 = load i64, ptr %62, align 8
  %63 = trunc i64 %.val53 to i32
  %64 = and i32 %63, 7
  %65 = add nsw i32 %64, -7
  %narrow.i57 = icmp ult i32 %65, -2
  br i1 %narrow.i57, label %69, label %66

66:                                               ; preds = %.lr.ph62
  %67 = getelementptr inbounds nuw i8, ptr %61, i64 40
  %68 = load ptr, ptr %67, align 8
  call void @Cudd_RecursiveDeref(ptr noundef %2, ptr noundef %68) #12
  %.val49.pre = load i32, ptr %21, align 4
  br label %69

69:                                               ; preds = %.lr.ph62, %66
  %.val49 = phi i32 [ %.val4969, %.lr.ph62 ], [ %.val49.pre, %66 ]
  %indvars.iv.next65 = add nuw nsw i64 %indvars.iv64, 1
  %70 = sext i32 %.val49 to i64
  %71 = icmp slt i64 %indvars.iv.next65, %70
  br i1 %71, label %.lr.ph62, label %.critedge2, !llvm.loop !6

.critedge2:                                       ; preds = %69, %.critedge
  %72 = load ptr, ptr %23, align 8
  %.not.i = icmp eq ptr %72, null
  br i1 %.not.i, label %Vec_PtrFree.exit, label %73

73:                                               ; preds = %.critedge2
  call void @free(ptr noundef nonnull %72) #12
  br label %Vec_PtrFree.exit

Vec_PtrFree.exit:                                 ; preds = %.critedge2, %73
  call void @free(ptr noundef nonnull %20) #12
  %74 = load ptr, ptr %4, align 8
  %75 = getelementptr i8, ptr %74, i64 24
  %.val56 = load i64, ptr %75, align 8
  %76 = and i64 %.val56, 7
  %.not = icmp eq i64 %76, 3
  br i1 %.not, label %77, label %84

77:                                               ; preds = %Vec_PtrFree.exit
  %78 = ptrtoint ptr %58 to i64
  %79 = getelementptr i8, ptr %74, i64 8
  %.val47 = load ptr, ptr %79, align 8
  %80 = ptrtoint ptr %.val47 to i64
  %81 = and i64 %80, 1
  %82 = xor i64 %81, %78
  %83 = inttoptr i64 %82 to ptr
  br label %84

84:                                               ; preds = %77, %Vec_PtrFree.exit
  %.040 = phi ptr [ %83, %77 ], [ %58, %Vec_PtrFree.exit ]
  call void @Cudd_Deref(ptr noundef %.040) #12
  store i64 %19, ptr %18, align 8
  br label %85

85:                                               ; preds = %84, %11
  %.0 = phi ptr [ %17, %11 ], [ %.040, %84 ]
  ret ptr %.0
}